; Function Attrs: mustprogress uwtable
define hidden void @_ZNK11cmd_context2ppEP4exprR7obj_refI3app11ast_managerE(ptr noundef nonnull align 8 dereferenceable(872) %this, ptr noundef %n, ptr noundef nonnull align 8 dereferenceable(16) %r) unnamed_addr #4 align 2 personality ptr @__gxx_personality_v0 {
entry:
  %buf = alloca %class.sbuffer, align 8
  %0 = getelementptr inbounds i8, ptr %buf, i64 16
  call void @llvm.memset.p0.i64(ptr noundef nonnull align 8 dereferenceable(144) %0, i8 0, i64 128, i1 false)
  store ptr %0, ptr %buf, align 8
  %m_pos.i.i = getelementptr inbounds i8, ptr %buf, i64 8
  store i32 0, ptr %m_pos.i.i, align 8
  %m_capacity.i.i = getelementptr inbounds i8, ptr %buf, i64 12
  store i32 16, ptr %m_capacity.i.i, align 4
  %vtable = load ptr, ptr %this, align 8
  %vfn = getelementptr inbounds i8, ptr %vtable, i64 72
  %1 = load ptr, ptr %vfn, align 8
  invoke void %1(ptr noundef nonnull align 8 dereferenceable(872) %this, ptr noundef %n, i32 noundef 0, ptr noundef null, ptr noundef nonnull align 8 dereferenceable(16) %r, ptr noundef nonnull align 8 dereferenceable(144) %buf)
          to label %invoke.cont unwind label %lpad

invoke.cont:                                      ; preds = %entry
  %2 = load ptr, ptr %buf, align 8
  %cmp.not.i.i.i.i = icmp eq ptr %2, %0
  %cmp.i.i.i.i.i = icmp eq ptr %2, null
  %or.cond.i.i.i.i = or i1 %cmp.not.i.i.i.i, %cmp.i.i.i.i.i
  br i1 %or.cond.i.i.i.i, label %_ZN7sbufferI6symbolLj16EED2Ev.exit, label %if.end.i.i.i.i.i

if.end.i.i.i.i.i:                                 ; preds = %invoke.cont
  invoke void @_ZN6memory10deallocateEPv(ptr noundef nonnull %2)
          to label %_ZN7sbufferI6symbolLj16EED2Ev.exit unwind label %terminate.lpad.i.i

terminate.lpad.i.i:                               ; preds = %if.end.i.i.i.i.i
  %3 = landingpad { ptr, i32 }
          catch ptr null
  %4 = extractvalue { ptr, i32 } %3, 0
  call void @__clang_call_terminate(ptr %4) #24
  unreachable

_ZN7sbufferI6symbolLj16EED2Ev.exit:               ; preds = %invoke.cont, %if.end.i.i.i.i.i
  ret void

lpad:                                             ; preds = %entry
  %5 = landingpad { ptr, i32 }
          cleanup
  call void @_ZN7sbufferI6symbolLj16EED2Ev(ptr noundef nonnull align 8 dereferenceable(144) %buf) #25
  resume { ptr, i32 } %5
}